target datalayout = "e-m:e-p270:32:32-p271:32:32-p272:64:64-i64:64-i128:128-f80:128-n8:16:32:64-S128"
target triple = "x86_64-pc-linux-gnu"

; Function Attrs: nounwind uwtable
define internal void @setup_row(i32 noundef %0, ptr noundef %1, ptr noundef %2, i32 noundef %3, i32 noundef %4, i32 noundef %5, i32 noundef %6, i32 noundef %7, i32 noundef %8) #0 {
  %10 = alloca i32, align 4
  %11 = alloca ptr, align 8
  %12 = alloca ptr, align 8
  %13 = alloca i32, align 4
  %14 = alloca i32, align 4
  %15 = alloca i32, align 4
  %16 = alloca i32, align 4
  %17 = alloca i32, align 4
  %18 = alloca i32, align 4
  %19 = alloca i32, align 4
  %20 = alloca i32, align 4
  store i32 %0, ptr %10, align 4, !tbaa !11
  store ptr %1, ptr %11, align 8, !tbaa !89
  store ptr %2, ptr %12, align 8, !tbaa !9
  store i32 %3, ptr %13, align 4, !tbaa !11
  store i32 %4, ptr %14, align 4, !tbaa !11
  store i32 %5, ptr %15, align 4, !tbaa !11
  store i32 %6, ptr %16, align 4, !tbaa !11
  store i32 %7, ptr %17, align 4, !tbaa !11
  store i32 %8, ptr %18, align 4, !tbaa !11
  call void @llvm.lifetime.start.p0(i64 4, ptr %19) #10
  store i32 0, ptr %19, align 4, !tbaa !11
  br label %21

21:                                               ; preds = %77, %9
  %22 = load i32, ptr %19, align 4, !tbaa !11
  %23 = load i32, ptr %10, align 4, !tbaa !11
  %24 = mul nsw i32 %23, 2
  %25 = add nsw i32 %24, 1
  %26 = icmp slt i32 %22, %25
  br i1 %26, label %27, label %80

27:                                               ; preds = %21
  call void @llvm.lifetime.start.p0(i64 4, ptr %20) #10
  %28 = load i32, ptr %14, align 4, !tbaa !11
  %29 = load i32, ptr %19, align 4, !tbaa !11
  %30 = add nsw i32 %28, %29
  %31 = load i32, ptr %10, align 4, !tbaa !11
  %32 = sub nsw i32 %30, %31
  %33 = icmp sge i32 %32, 0
  br i1 %33, label %34, label %40

34:                                               ; preds = %27
  %35 = load i32, ptr %14, align 4, !tbaa !11
  %36 = load i32, ptr %19, align 4, !tbaa !11
  %37 = add nsw i32 %35, %36
  %38 = load i32, ptr %10, align 4, !tbaa !11
  %39 = sub nsw i32 %37, %38
  br label %47

40:                                               ; preds = %27
  %41 = load i32, ptr %14, align 4, !tbaa !11
  %42 = load i32, ptr %19, align 4, !tbaa !11
  %43 = add nsw i32 %41, %42
  %44 = load i32, ptr %10, align 4, !tbaa !11
  %45 = sub nsw i32 %43, %44
  %46 = sub nsw i32 0, %45
  br label %47

47:                                               ; preds = %40, %34
  %48 = phi i32 [ %39, %34 ], [ %46, %40 ]
  store i32 %48, ptr %20, align 4, !tbaa !11
  %49 = load i32, ptr %20, align 4, !tbaa !11
  %50 = load i32, ptr %15, align 4, !tbaa !11
  %51 = icmp sge i32 %49, %50
  br i1 %51, label %52, label %58

52:                                               ; preds = %47
  %53 = load i32, ptr %15, align 4, !tbaa !11
  %54 = mul nsw i32 2, %53
  %55 = sub nsw i32 %54, 1
  %56 = load i32, ptr %20, align 4, !tbaa !11
  %57 = sub nsw i32 %55, %56
  br label %60

58:                                               ; preds = %47
  %59 = load i32, ptr %20, align 4, !tbaa !11
  br label %60

60:                                               ; preds = %58, %52
  %61 = phi i32 [ %57, %52 ], [ %59, %58 ]
  store i32 %61, ptr %20, align 4, !tbaa !11
  %62 = load ptr, ptr %12, align 8, !tbaa !9
  %63 = load i32, ptr %20, align 4, !tbaa !11
  %64 = load i32, ptr %18, align 4, !tbaa !11
  %65 = mul nsw i32 %63, %64
  %66 = sext i32 %65 to i64
  %67 = getelementptr inbounds i8, ptr %62, i64 %66
  %68 = load i32, ptr %16, align 4, !tbaa !11
  %69 = load i32, ptr %13, align 4, !tbaa !11
  %70 = mul nsw i32 %68, %69
  %71 = sext i32 %70 to i64
  %72 = getelementptr inbounds i8, ptr %67, i64 %71
  %73 = load ptr, ptr %11, align 8, !tbaa !89
  %74 = load i32, ptr %19, align 4, !tbaa !11
  %75 = sext i32 %74 to i64
  %76 = getelementptr inbounds ptr, ptr %73, i64 %75
  store ptr %72, ptr %76, align 8, !tbaa !9
  call void @llvm.lifetime.end.p0(i64 4, ptr %20) #10
  br label %77

77:                                               ; preds = %60
  %78 = load i32, ptr %19, align 4, !tbaa !11
  %79 = add nsw i32 %78, 1
  store i32 %79, ptr %19, align 4, !tbaa !11
  br label %21, !llvm.loop !94

80:                                               ; preds = %21
  call void @llvm.lifetime.end.p0(i64 4, ptr %19) #10
  ret void
}