; Function Attrs: nofree norecurse nosync nounwind memory(argmem: write) uwtable
define internal void @setup_row(i32 noundef %0, ptr noundef writeonly captures(none) %1, ptr noundef %2, i32 noundef %3, i32 noundef %4, i32 noundef %5, i32 noundef %6, i32 %7, i32 noundef %8) #7 {
  %.not28 = icmp slt i32 %0, 0
  br i1 %.not28, label %._crit_edge, label %.lr.ph

.lr.ph:                                           ; preds = %9
  %10 = shl nuw i32 %0, 1
  %11 = sub i32 %4, %0
  %12 = shl nsw i32 %5, 1
  %13 = mul nsw i32 %6, %3
  %14 = sext i32 %13 to i64
  %invariant.gep = getelementptr i8, ptr %2, i64 %14
  %smax = tail call i32 @llvm.smax.i32(i32 %10, i32 0)
  %15 = or disjoint i32 %smax, 1
  %wide.trip.count = zext nneg i32 %15 to i64
  br label %16

16:                                               ; preds = %.lr.ph, %16
  %indvars.iv = phi i64 [ 0, %.lr.ph ], [ %indvars.iv.next, %16 ]
  %17 = trunc nuw nsw i64 %indvars.iv to i32
  %18 = add i32 %11, %17
  %19 = tail call i32 @llvm.abs.i32(i32 %18, i1 true)
  %.not27 = icmp slt i32 %19, %5
  %20 = xor i32 %19, -1
  %21 = add i32 %12, %20
  %22 = select i1 %.not27, i32 %19, i32 %21
  %23 = mul nsw i32 %22, %8
  %24 = sext i32 %23 to i64
  %gep = getelementptr i8, ptr %invariant.gep, i64 %24
  %25 = getelementptr inbounds nuw ptr, ptr %1, i64 %indvars.iv
  store ptr %gep, ptr %25, align 8, !tbaa !46
  %indvars.iv.next = add nuw nsw i64 %indvars.iv, 1
  %exitcond.not = icmp eq i64 %indvars.iv.next, %wide.trip.count
  br i1 %exitcond.not, label %._crit_edge, label %16, !llvm.loop !85

._crit_edge:                                      ; preds = %16, %9
  ret void
}